; Function Attrs: mustprogress nofree norecurse nosync nounwind willreturn memory(read, argmem: none, inaccessiblemem: none) uwtable
define ptr @l_Lean_Meta_instToExprCoeFnType___lambda__1(i8 noundef zeroext %0) local_unnamed_addr #2 {
  %switch.selectcmp = icmp eq i8 %0, 1
  %switch.selectcmp4 = icmp eq i8 %0, 0
  %l_Lean_Meta_instToExprCoeFnType___lambda__1___closed__6.val = load ptr, ptr @l_Lean_Meta_instToExprCoeFnType___lambda__1___closed__6, align 8
  %l_Lean_Meta_instToExprCoeFnType___lambda__1___closed__9.val = load ptr, ptr @l_Lean_Meta_instToExprCoeFnType___lambda__1___closed__9, align 8
  %l_Lean_Meta_instToExprCoeFnType___lambda__1___closed__12.val = load ptr, ptr @l_Lean_Meta_instToExprCoeFnType___lambda__1___closed__12, align 8
  %switch.select.val = select i1 %switch.selectcmp, ptr %l_Lean_Meta_instToExprCoeFnType___lambda__1___closed__9.val, ptr %l_Lean_Meta_instToExprCoeFnType___lambda__1___closed__12.val
  %.0 = select i1 %switch.selectcmp4, ptr %l_Lean_Meta_instToExprCoeFnType___lambda__1___closed__6.val, ptr %switch.select.val
  ret ptr %.0
}